target datalayout = "e-m:e-p270:32:32-p271:32:32-p272:64:64-i64:64-i128:128-f80:128-n8:16:32:64-S128"
target triple = "x86_64-pc-linux-gnu"

%"class.vcg::Matrix44" = type { %"struct.std::array" }
%"struct.std::array" = type { [16 x float] }
%class.EditManipulatorsPlugin = type { %class.QObject, %class.EditTool, %class.QFont, %"class.vcg::Matrix44", %"class.vcg::Matrix44", i32, i32, i8, i8, float, %class.QString, i8, float, i8, %"class.vcg::Point2", %"class.vcg::Point2", float, float, float, float, float, float, float, float, float, float, %"class.vcg::Point3", %"class.vcg::Point3", %"class.vcg::Point3" }
%class.QObject = type { ptr, %class.QScopedPointer }
%class.QScopedPointer = type { ptr }
%class.EditTool = type { %class.MeshLabPluginLogger }
%class.MeshLabPluginLogger = type { ptr, ptr }
%class.QFont = type <{ %class.QExplicitlySharedDataPointer, i32, [4 x i8] }>
%class.QExplicitlySharedDataPointer = type { ptr }
%class.QString = type { ptr }
%"class.vcg::Point2" = type { [2 x i32] }
%"class.vcg::Point3" = type { [3 x float] }

; Function Attrs: mustprogress nounwind uwtable
define void @_ZN22EditManipulatorsPlugin12resetOffsetsEv(ptr noundef nonnull align 8 dereferenceable(304) %0) #4 align 2 {
  %2 = alloca ptr, align 8
  store ptr %0, ptr %2, align 8
  %3 = load ptr, ptr %2, align 8
  %4 = getelementptr inbounds %class.EditManipulatorsPlugin, ptr %3, i32 0, i32 5
  %5 = load i32, ptr %4, align 8
  %6 = icmp eq i32 %5, 3
  br i1 %6, label %7, label %16

7:                                                ; preds = %1
  %8 = getelementptr inbounds %class.EditManipulatorsPlugin, ptr %3, i32 0, i32 18
  store float 1.000000e+00, ptr %8, align 4
  %9 = getelementptr inbounds %class.EditManipulatorsPlugin, ptr %3, i32 0, i32 19
  store float 1.000000e+00, ptr %9, align 8
  %10 = getelementptr inbounds %class.EditManipulatorsPlugin, ptr %3, i32 0, i32 20
  store float 1.000000e+00, ptr %10, align 4
  %11 = getelementptr inbounds %class.EditManipulatorsPlugin, ptr %3, i32 0, i32 21
  store float 1.000000e+00, ptr %11, align 8
  %12 = getelementptr inbounds %class.EditManipulatorsPlugin, ptr %3, i32 0, i32 22
  store float 1.000000e+00, ptr %12, align 4
  %13 = getelementptr inbounds %class.EditManipulatorsPlugin, ptr %3, i32 0, i32 23
  store float 1.000000e+00, ptr %13, align 8
  %14 = getelementptr inbounds %class.EditManipulatorsPlugin, ptr %3, i32 0, i32 24
  store float 1.000000e+00, ptr %14, align 4
  %15 = getelementptr inbounds %class.EditManipulatorsPlugin, ptr %3, i32 0, i32 25
  store float 1.000000e+00, ptr %15, align 8
  br label %25

16:                                               ; preds = %1
  %17 = getelementptr inbounds %class.EditManipulatorsPlugin, ptr %3, i32 0, i32 18
  store float 0.000000e+00, ptr %17, align 4
  %18 = getelementptr inbounds %class.EditManipulatorsPlugin, ptr %3, i32 0, i32 19
  store float 0.000000e+00, ptr %18, align 8
  %19 = getelementptr inbounds %class.EditManipulatorsPlugin, ptr %3, i32 0, i32 20
  store float 0.000000e+00, ptr %19, align 4
  %20 = getelementptr inbounds %class.EditManipulatorsPlugin, ptr %3, i32 0, i32 21
  store float 0.000000e+00, ptr %20, align 8
  %21 = getelementptr inbounds %class.EditManipulatorsPlugin, ptr %3, i32 0, i32 22
  store float 0.000000e+00, ptr %21, align 4
  %22 = getelementptr inbounds %class.EditManipulatorsPlugin, ptr %3, i32 0, i32 23
  store float 0.000000e+00, ptr %22, align 8
  %23 = getelementptr inbounds %class.EditManipulatorsPlugin, ptr %3, i32 0, i32 24
  store float 0.000000e+00, ptr %23, align 4
  %24 = getelementptr inbounds %class.EditManipulatorsPlugin, ptr %3, i32 0, i32 25
  store float 0.000000e+00, ptr %24, align 8
  br label %25

25:                                               ; preds = %16, %7
  %26 = getelementptr inbounds %class.EditManipulatorsPlugin, ptr %3, i32 0, i32 16
  store float 0.000000e+00, ptr %26, align 4
  %27 = getelementptr inbounds %class.EditManipulatorsPlugin, ptr %3, i32 0, i32 17
  store float 0.000000e+00, ptr %27, align 8
  ret void
}