; Function Attrs: mustprogress nofree norecurse nosync nounwind willreturn memory(argmem: readwrite) uwtable
define void @_ZN22EditManipulatorsPlugin12resetOffsetsEv(ptr nocapture noundef nonnull align 8 dereferenceable(304) %0) local_unnamed_addr #11 align 2 {
  %2 = getelementptr inbounds i8, ptr %0, i64 176
  %3 = load i32, ptr %2, align 8
  %4 = icmp eq i32 %3, 3
  %.sink7 = select i1 %4, float 1.000000e+00, float 0.000000e+00
  %5 = getelementptr inbounds i8, ptr %0, i64 236
  %6 = insertelement <4 x float> poison, float %.sink7, i64 0
  %7 = shufflevector <4 x float> %6, <4 x float> poison, <4 x i32> zeroinitializer
  store <4 x float> %7, ptr %5, align 4
  %8 = getelementptr inbounds i8, ptr %0, i64 252
  store <4 x float> %7, ptr %8, align 4
  %9 = getelementptr inbounds i8, ptr %0, i64 228
  store <2 x float> zeroinitializer, ptr %9, align 4
  ret void
}